; Function Attrs: nounwind uwtable
define i32 @pmix_pgpu_base_collect_inventory(ptr noundef %0, i64 noundef %1, ptr noundef %2) local_unnamed_addr #0 {
  %.01116 = load ptr, ptr getelementptr inbounds nuw (i8, ptr @pmix_pgpu_globals, i64 240), align 8, !tbaa !22
  %.not17 = icmp eq ptr %.01116, getelementptr inbounds nuw (i8, ptr @pmix_pgpu_globals, i64 120)
  br i1 %.not17, label %._crit_edge, label %.lr.ph

.lr.ph:                                           ; preds = %3, %20
  %.01118 = phi ptr [ %.011, %20 ], [ %.01116, %3 ]
  %4 = getelementptr inbounds nuw i8, ptr %.01118, i64 152
  %5 = load ptr, ptr %4, align 8, !tbaa !66
  %6 = getelementptr inbounds nuw i8, ptr %5, i64 72
  %7 = load ptr, ptr %6, align 8, !tbaa !94
  %.not14 = icmp eq ptr %7, null
  br i1 %.not14, label %20, label %8

8:                                                ; preds = %.lr.ph
  %9 = load i32, ptr getelementptr inbounds nuw (i8, ptr @pmix_pgpu_base_framework, i64 76), align 4, !tbaa !3
  %or.cond = icmp ult i32 %9, 64
  br i1 %or.cond, label %10, label %17

10:                                               ; preds = %8
  %11 = zext nneg i32 %9 to i64
  %12 = getelementptr inbounds nuw [0 x %struct.pmix_output_desc_t], ptr @pmix_output_info, i64 0, i64 %11, i32 2
  %13 = load i32, ptr %12, align 4, !tbaa !18
  %14 = icmp sgt i32 %13, 4
  br i1 %14, label %15, label %17

15:                                               ; preds = %10
  %16 = load ptr, ptr %5, align 8, !tbaa !95
  tail call void (i32, ptr, ...) @pmix_output(i32 noundef %9, ptr noundef nonnull @.str.8, ptr noundef %16) #11
  %.pre = load ptr, ptr %4, align 8, !tbaa !66
  %.phi.trans.insert = getelementptr inbounds nuw i8, ptr %.pre, i64 72
  %.pre21 = load ptr, ptr %.phi.trans.insert, align 8, !tbaa !94
  br label %17

17:                                               ; preds = %15, %10, %8
  %18 = phi ptr [ %.pre21, %15 ], [ %7, %10 ], [ %7, %8 ]
  %19 = tail call i32 %18(ptr noundef %0, i64 noundef %1, ptr noundef %2) #11
  %.not15 = icmp eq i32 %19, 0
  br i1 %.not15, label %20, label %._crit_edge

20:                                               ; preds = %.lr.ph, %17
  %21 = getelementptr inbounds nuw i8, ptr %.01118, i64 120
  %.011 = load ptr, ptr %21, align 8, !tbaa !22
  %.not = icmp eq ptr %.011, getelementptr inbounds nuw (i8, ptr @pmix_pgpu_globals, i64 120)
  br i1 %.not, label %._crit_edge, label %.lr.ph, !llvm.loop !96

._crit_edge:                                      ; preds = %17, %20, %3
  %.0 = phi i32 [ 0, %3 ], [ 0, %20 ], [ %19, %17 ]
  ret i32 %.0
}